; Function Attrs: mustprogress uwtable
define dso_local noundef zeroext i1 @_ZNK4base15DictionaryValue33GetDictionaryWithoutPathExpansionENS_16BasicStringPieceINSt7__cxx1112basic_stringIcSt11char_traitsIcESaIcEEEEEPPKS0_(ptr noundef nonnull align 8 dereferenceable(64) %this, ptr %key.coerce0, i64 %key.coerce1, ptr noundef writeonly %out_value) local_unnamed_addr #3 align 2 {
entry:
  %value = alloca ptr, align 8
  %call = call noundef zeroext i1 @_ZNK4base15DictionaryValue23GetWithoutPathExpansionENS_16BasicStringPieceINSt7__cxx1112basic_stringIcSt11char_traitsIcESaIcEEEEEPPKNS_5ValueE(ptr noundef nonnull align 8 dereferenceable(64) %this, ptr %key.coerce0, i64 %key.coerce1, ptr noundef nonnull %value)
  br i1 %call, label %lor.lhs.false, label %return

lor.lhs.false:                                    ; preds = %entry
  %0 = load ptr, ptr %value, align 8
  %type_.i = getelementptr inbounds i8, ptr %0, i64 8
  %1 = load i32, ptr %type_.i, align 8
  %cmp.i = icmp eq i32 %1, 6
  br i1 %cmp.i, label %if.end, label %return

if.end:                                           ; preds = %lor.lhs.false
  %tobool3.not = icmp eq ptr %out_value, null
  br i1 %tobool3.not, label %return, label %if.then4

if.then4:                                         ; preds = %if.end
  store ptr %0, ptr %out_value, align 8
  br label %return

return:                                           ; preds = %if.end, %if.then4, %entry, %lor.lhs.false
  %retval.0 = phi i1 [ false, %lor.lhs.false ], [ false, %entry ], [ true, %if.then4 ], [ true, %if.end ]
  ret i1 %retval.0
}